(dp0
S'HOSUPPORT'
p1
S'1'
p2
sS'BDORZ'
p3
S'27315'
p4
sS'PTOKEN'
p5
S'e6054ce98f3a2a1251c8271a1e947f37'
p6
sS'BDUSS'
p7
S'k15TmUycEY2QjcwZ1JqZ3MzQkxaR2VTYjJ1S0pSeDF-cGViU35QVC15Zmh6QkZZQVFBQUFBJCQAAAAAAAAAAAEAAAAc1XUcttTE49PQ0uPW0NfGvKcAAAAAAAAAAAAAAAAAAAAAAAAAAAAAAAAAAAAAAAAAAAAAAAAAAAAAAAAAAAAAAAAAAOE~6lfhP-pXT'
p8
sS'USERNAMETYPE'
p9
S'2'
p10
sS'SAVEUSERID'
p11
S'a86115c76236ea4f29891dcfe8913f0497f105d6'
p12
sS'BAIDUID'
p13
S'153FA506162835148F90DB6947679177:FG=1'
p14
sS'PANPSC'
p15
S'14227952909759387867%3AkpNhOLMYOxSTTlZJLRuL6On90oj%2BY%2FIs95w0nqVmmIPKVUIxpiO4cJMryBOkWZfCN6HNeFnVYUIs4HAYAit%2BYKvQ%2FLikMCxTeBeh%2BtYRIjicNh7jm%2FMsZuU2a5%2F2DRfvJW9vznSVV%2B0IVdKGGXaBWK1Sr93PEHDi%2B%2Bo8ht7g5D2LIWeznIUCtSkA0KYPulwlfkiVl%2Ff%2FRfyJLe7zIM3Pkw%3D%3D'
p16
sS'STOKEN'
p17
S'56dbc43e99a2e2e124e8c2e6447fbaaf26dfe3db3c52002c410024d77bab8665'
p18
sS'UBI'
p19
S'fi_PncwhpxZ%7ETaKAQYwdKF-NA8pqpLk%7EDct1Exg64Ku%7EVXrCA3y%7Exzpla3mvKGVPQ0BAPsvYifsyZ8MxTJw9lmzADJrPTfml8eaDvpBlU7KQ4BSbPZ4ZSvmXGb9-rvk%7E6sxiGa3-oHKvWO795Z28dDoyFb4Aw__'
p20
sS'HISTORY'
p21
S'cd65c3d56223882ac835151a0519b25ddeef5f843dcac06c'
p22
s.